; Function Attrs: mustprogress uwtable
define void @_ZN7rocksdb22HistogramWindowingImpl3AddEm(ptr noundef nonnull align 8 dereferenceable(1032) %this, i64 noundef %value) unnamed_addr #0 align 2 personality ptr @__gxx_personality_v0 {
entry:
  %clock_.i = getelementptr inbounds i8, ptr %this, i64 8
  %0 = load ptr, ptr %clock_.i, align 8
  %vtable.i = load ptr, ptr %0, align 8
  %vfn.i = getelementptr inbounds i8, ptr %vtable.i, i64 152
  %1 = load ptr, ptr %vfn.i, align 8
  %call2.i = tail call noundef i64 %1(ptr noundef nonnull align 8 dereferenceable(32) %0)
  %current_window_.i.i = getelementptr inbounds i8, ptr %this, i64 992
  %2 = load atomic i64, ptr %current_window_.i.i monotonic, align 8
  %last_swap_time_.i.i = getelementptr inbounds i8, ptr %this, i64 1000
  %3 = load atomic i64, ptr %last_swap_time_.i.i monotonic, align 8
  %sub.i = sub i64 %call2.i, %3
  %micros_per_window_.i = getelementptr inbounds i8, ptr %this, i64 1016
  %4 = load i64, ptr %micros_per_window_.i, align 8
  %cmp.i = icmp ugt i64 %sub.i, %4
  br i1 %cmp.i, label %land.lhs.true.i, label %_ZN7rocksdb22HistogramWindowingImpl9TimerTickEv.exit

land.lhs.true.i:                                  ; preds = %entry
  %window_stats_.i = getelementptr inbounds i8, ptr %this, i64 984
  %5 = load ptr, ptr %window_stats_.i, align 8
  %num_.i.i = getelementptr inbounds %"struct.rocksdb::HistogramStat", ptr %5, i64 %2, i32 2
  %6 = load atomic i64, ptr %num_.i.i monotonic, align 8
  %min_num_per_window_.i = getelementptr inbounds i8, ptr %this, i64 1024
  %7 = load i64, ptr %min_num_per_window_.i, align 8
  %cmp7.not.i = icmp ult i64 %6, %7
  br i1 %cmp7.not.i, label %_ZN7rocksdb22HistogramWindowingImpl9TimerTickEv.exit, label %if.then.i

if.then.i:                                        ; preds = %land.lhs.true.i
  tail call void @_ZN7rocksdb22HistogramWindowingImpl17SwapHistoryBucketEv(ptr noundef nonnull align 8 dereferenceable(1032) %this)
  br label %_ZN7rocksdb22HistogramWindowingImpl9TimerTickEv.exit

_ZN7rocksdb22HistogramWindowingImpl9TimerTickEv.exit: ; preds = %entry, %land.lhs.true.i, %if.then.i
  %stats_ = getelementptr inbounds i8, ptr %this, i64 64
  tail call void @_ZN7rocksdb13HistogramStat3AddEm(ptr noundef nonnull align 8 dereferenceable(920) %stats_, i64 noundef %value)
  %window_stats_ = getelementptr inbounds i8, ptr %this, i64 984
  %8 = load atomic i64, ptr %current_window_.i.i monotonic, align 8
  %9 = load ptr, ptr %window_stats_, align 8
  %arrayidx.i = getelementptr inbounds %"struct.rocksdb::HistogramStat", ptr %9, i64 %8
  tail call void @_ZN7rocksdb13HistogramStat3AddEm(ptr noundef nonnull align 8 dereferenceable(920) %arrayidx.i, i64 noundef %value)
  ret void
}